; Function Attrs: inlinehint mustprogress uwtable
define internal fastcc void @"_ZZN4cvc58internal6theory2ff5parse7bitSumsERKNS0_12NodeTemplateILb1EEESt13unordered_setIS5_St4hashIS5_ESt8equal_toIS5_ESaIS5_EEENK3$_0clENS4_ILb0EEERKNS0_16FiniteFieldValueE"(ptr dead_on_unwind noalias nonnull writable align 8 %0, ptr nonnull %.0.val.0.val, ptr noundef nonnull readonly captures(none) %1, ptr noundef nonnull align 8 dereferenceable(32) %2) unnamed_addr #8 align 2 personality ptr @__gxx_personality_v0 {
  %4 = alloca %"class.cvc5::internal::NodeBuilder", align 8
  %5 = alloca %"class.cvc5::internal::NodeTemplate.90", align 8
  %6 = alloca %"class.cvc5::internal::NodeTemplate.90", align 8
  %7 = alloca %"class.cvc5::internal::NodeTemplate", align 8
  call void @llvm.lifetime.start.p0(i64 8, ptr nonnull %7) #20
  call void @_ZN4cvc58internal11NodeManager7mkConstINS0_16FiniteFieldValueEEENS0_12NodeTemplateILb1EEERKT_(ptr dead_on_unwind nonnull writable sret(%"class.cvc5::internal::NodeTemplate") align 8 %7, ptr noundef nonnull align 8 dereferenceable(3560) %.0.val.0.val, ptr noundef nonnull align 8 dereferenceable(32) %2)
  %8 = load ptr, ptr %7, align 8, !tbaa !10
  %9 = load ptr, ptr %1, align 8, !tbaa !75
  call void @llvm.lifetime.start.p0(i64 8, ptr nonnull %5)
  call void @llvm.lifetime.start.p0(i64 8, ptr nonnull %6)
  call void @llvm.lifetime.start.p0(i64 128, ptr nonnull %4) #20, !noalias !140
  %10 = getelementptr inbounds nuw i8, ptr %8, i64 16
  %11 = load ptr, ptr %10, align 8, !tbaa !143, !noalias !140
  invoke void @_ZN4cvc58internal11NodeBuilderC1EPNS0_11NodeManagerENS0_4kind6Kind_tE(ptr noundef nonnull align 8 dereferenceable(124) %4, ptr noundef %11, i32 noundef 153)
          to label %.noexc unwind label %37

.noexc:                                           ; preds = %3
  store ptr %8, ptr %5, align 8, !tbaa !75, !noalias !140
  %12 = invoke noundef nonnull align 8 dereferenceable(124) ptr @_ZN4cvc58internal11NodeBuilderlsENS0_12NodeTemplateILb0EEE(ptr noundef nonnull align 8 dereferenceable(124) %4, ptr noundef nonnull %5)
          to label %13 unwind label %18, !noalias !140

13:                                               ; preds = %.noexc
  store ptr %9, ptr %6, align 8, !tbaa !75, !noalias !140
  %14 = invoke noundef nonnull align 8 dereferenceable(124) ptr @_ZN4cvc58internal11NodeBuilderlsENS0_12NodeTemplateILb0EEE(ptr noundef nonnull align 8 dereferenceable(124) %12, ptr noundef nonnull %6)
          to label %15 unwind label %20, !noalias !140

15:                                               ; preds = %13
  invoke void @_ZN4cvc58internal11NodeBuilder13constructNodeEv(ptr dead_on_unwind nonnull writable sret(%"class.cvc5::internal::NodeTemplate") align 8 %0, ptr noundef nonnull align 8 dereferenceable(124) %4)
          to label %23 unwind label %16

16:                                               ; preds = %15
  %17 = landingpad { ptr, i32 }
          cleanup
  br label %22

18:                                               ; preds = %.noexc
  %19 = landingpad { ptr, i32 }
          cleanup
  br label %22

20:                                               ; preds = %13
  %21 = landingpad { ptr, i32 }
          cleanup
  br label %22

22:                                               ; preds = %20, %18, %16
  %.pn5.i = phi { ptr, i32 } [ %17, %16 ], [ %21, %20 ], [ %19, %18 ]
  call void @_ZN4cvc58internal11NodeBuilderD1Ev(ptr noundef nonnull align 8 dereferenceable(124) %4) #20
  call void @llvm.lifetime.end.p0(i64 128, ptr nonnull %4) #20, !noalias !140
  br label %.body

23:                                               ; preds = %15
  call void @_ZN4cvc58internal11NodeBuilderD1Ev(ptr noundef nonnull align 8 dereferenceable(124) %4) #20
  call void @llvm.lifetime.end.p0(i64 128, ptr nonnull %4) #20, !noalias !140
  call void @llvm.lifetime.end.p0(i64 8, ptr nonnull %5)
  call void @llvm.lifetime.end.p0(i64 8, ptr nonnull %6)
  %24 = load ptr, ptr %7, align 8, !tbaa !10
  %25 = load i64, ptr %24, align 8
  %26 = and i64 %25, 1152920405095219200
  %.not.i.i = icmp eq i64 %26, 1152920405095219200
  br i1 %.not.i.i, label %_ZN4cvc58internal12NodeTemplateILb1EED2Ev.exit, label %27, !prof !18

27:                                               ; preds = %23
  %28 = add i64 %25, 1152920405095219200
  %29 = and i64 %28, 1152920405095219200
  %30 = and i64 %25, -1152920405095219201
  %31 = or disjoint i64 %29, %30
  store i64 %31, ptr %24, align 8
  %32 = icmp eq i64 %29, 0
  br i1 %32, label %33, label %_ZN4cvc58internal12NodeTemplateILb1EED2Ev.exit, !prof !18

33:                                               ; preds = %27
  invoke void @_ZN4cvc58internal4expr9NodeValue15markForDeletionEv(ptr noundef nonnull align 8 dereferenceable(24) %24)
          to label %_ZN4cvc58internal12NodeTemplateILb1EED2Ev.exit unwind label %34

34:                                               ; preds = %33
  %35 = landingpad { ptr, i32 }
          catch ptr null
  %36 = extractvalue { ptr, i32 } %35, 0
  call void @__clang_call_terminate(ptr %36) #21
  unreachable

_ZN4cvc58internal12NodeTemplateILb1EED2Ev.exit:   ; preds = %23, %27, %33
  call void @llvm.lifetime.end.p0(i64 8, ptr nonnull %7) #20
  ret void

37:                                               ; preds = %3
  %38 = landingpad { ptr, i32 }
          cleanup
  br label %.body

.body:                                            ; preds = %22, %37
  %eh.lpad-body = phi { ptr, i32 } [ %38, %37 ], [ %.pn5.i, %22 ]
  call void @_ZN4cvc58internal12NodeTemplateILb1EED2Ev(ptr noundef nonnull align 8 dereferenceable(8) %7) #20
  call void @llvm.lifetime.end.p0(i64 8, ptr nonnull %7) #20
  resume { ptr, i32 } %eh.lpad-body
}